; Function Attrs: cold nounwind optsize uwtable
define void @ff_mpv_common_end(ptr noundef %0) local_unnamed_addr #2 {
  tail call void @ff_mpv_free_context_frame(ptr noundef %0) #13
  %2 = getelementptr inbounds nuw i8, ptr %0, i64 912
  %3 = load i32, ptr %2, align 8, !tbaa !44
  %4 = icmp sgt i32 %3, 1
  br i1 %4, label %5, label %6

5:                                                ; preds = %1
  store i32 1, ptr %2, align 8, !tbaa !44
  br label %6

6:                                                ; preds = %5, %1
  %7 = getelementptr inbounds nuw i8, ptr %0, i64 920
  tail call void @ff_mpv_unref_picture(ptr noundef nonnull %7) #12
  %8 = getelementptr inbounds nuw i8, ptr %0, i64 1160
  tail call void @ff_mpv_unref_picture(ptr noundef nonnull %8) #12
  %9 = getelementptr inbounds nuw i8, ptr %0, i64 1040
  tail call void @ff_mpv_unref_picture(ptr noundef nonnull %9) #12
  %10 = getelementptr inbounds nuw i8, ptr %0, i64 532
  store i32 0, ptr %10, align 4, !tbaa !118
  %11 = getelementptr inbounds nuw i8, ptr %0, i64 4328
  store i32 0, ptr %11, align 8, !tbaa !123
  %12 = getelementptr inbounds nuw i8, ptr %0, i64 568
  tail call void @llvm.memset.p0.i64(ptr noundef nonnull align 8 dereferenceable(16) %12, i8 0, i64 16, i1 false)
  ret void
}